target datalayout = "e-m:e-p270:32:32-p271:32:32-p272:64:64-i64:64-i128:128-f80:128-n8:16:32:64-S128"
target triple = "x86_64-pc-linux-gnu"

%class.Node = type <{ ptr, ptr, ptr, i32, i32, i32, i32, i32, i32, i32, [4 x i8] }>
%class.PhaseValues = type { %class.PhaseTransform, i8, ptr, ptr, [137 x ptr], [137 x ptr], [20 x ptr] }
%class.PhaseTransform = type { ptr, %class.Phase }
%class.Phase = type { i32, ptr }
%class.Type = type <{ ptr, ptr, i32, [4 x i8] }>
%class.TypeInteger.base = type { %class.Type.base, i16 }
%class.Type.base = type <{ ptr, ptr, i32 }>
%class.TypeLong = type { %class.TypeInteger.base, i64, i64 }
%class.anon = type { ptr, ptr }
%class.anon.15 = type { ptr, ptr }
%class.Type_Array = type { ptr, i32, ptr }

@_ZTV8AddLNode = external unnamed_addr constant { [31 x ptr] }, align 8

; Function Attrs: mustprogress nounwind uwtable
define linkonce_odr hidden void @_ZN4Node13init_class_idEj(ptr noundef nonnull align 8 dereferenceable(52) %0, i32 noundef %1) #1 comdat align 2 {
  %3 = alloca ptr, align 8
  %4 = alloca i32, align 4
  store ptr %0, ptr %3, align 8
  store i32 %1, ptr %4, align 4
  %5 = load ptr, ptr %3, align 8
  %6 = load i32, ptr %4, align 4
  %7 = getelementptr inbounds %class.Node, ptr %5, i32 0, i32 8
  store i32 %6, ptr %7, align 4
  ret void
}

; Function Attrs: mustprogress nounwind uwtable
define linkonce_odr hidden noundef ptr @_ZNK10Type_Array11fast_lookupEj(ptr noundef nonnull align 8 dereferenceable(24) %0, i32 noundef %1) #1 comdat align 2 {
  %3 = alloca ptr, align 8
  %4 = alloca i32, align 4
  store ptr %0, ptr %3, align 8
  store i32 %1, ptr %4, align 4
  %5 = load ptr, ptr %3, align 8
  %6 = getelementptr inbounds %class.Type_Array, ptr %5, i32 0, i32 2
  %7 = load ptr, ptr %6, align 8
  %8 = load i32, ptr %4, align 4
  %9 = zext i32 %8 to i64
  %10 = getelementptr inbounds ptr, ptr %7, i64 %9
  %11 = load ptr, ptr %10, align 8
  ret ptr %11
}

; Function Attrs: mustprogress nounwind uwtable
define linkonce_odr hidden void @_ZN7AddNodeC2EP4NodeS1_(ptr noundef nonnull align 8 dereferenceable(52) %0, ptr noundef %1, ptr noundef %2) unnamed_addr #1 comdat align 2 {
  %4 = alloca ptr, align 8
  %5 = alloca ptr, align 8
  %6 = alloca ptr, align 8
  store ptr %0, ptr %4, align 8
  store ptr %1, ptr %5, align 8
  store ptr %2, ptr %6, align 8
  %7 = load ptr, ptr %4, align 8
  %8 = load ptr, ptr %5, align 8
  %9 = load ptr, ptr %6, align 8
  call void @_ZN4NodeC2EPS_S0_S0_(ptr noundef nonnull align 8 dereferenceable(52) %7, ptr noundef null, ptr noundef %8, ptr noundef %9)
  store ptr getelementptr inbounds inrange(-16, 232) ({ [31 x ptr] }, ptr @_ZTV7AddNode, i32 0, i32 0, i32 2), ptr %7, align 8
  call void @_ZN4Node13init_class_idEj(ptr noundef nonnull align 8 dereferenceable(52) %7, i32 noundef 2048)
  ret void
}

; Function Attrs: mustprogress nounwind uwtable
define linkonce_odr hidden noundef i64 @_ZNK8TypeLong7get_conEv(ptr noundef nonnull align 8 dereferenceable(40) %0) #1 comdat align 2 {
  %2 = alloca ptr, align 8
  store ptr %0, ptr %2, align 8
  %3 = load ptr, ptr %2, align 8
  %4 = getelementptr inbounds %class.TypeLong, ptr %3, i32 0, i32 1
  %5 = load i64, ptr %4, align 8
  ret i64 %5
}

; Function Attrs: mustprogress nounwind uwtable
define linkonce_odr hidden noundef zeroext i1 @_ZNK8TypeLong6is_conEv(ptr noundef nonnull align 8 dereferenceable(40) %0) #1 comdat align 2 {
  %2 = alloca ptr, align 8
  store ptr %0, ptr %2, align 8
  %3 = load ptr, ptr %2, align 8
  %4 = getelementptr inbounds %class.TypeLong, ptr %3, i32 0, i32 1
  %5 = load i64, ptr %4, align 8
  %6 = getelementptr inbounds %class.TypeLong, ptr %3, i32 0, i32 2
  %7 = load i64, ptr %6, align 8
  %8 = icmp eq i64 %5, %7
  ret i1 %8
}

; Function Attrs: mustprogress nounwind uwtable
define linkonce_odr hidden noundef ptr @_ZNK4Type8isa_longEv(ptr noundef nonnull align 8 dereferenceable(20) %0) #1 comdat align 2 {
  %2 = alloca ptr, align 8
  store ptr %0, ptr %2, align 8
  %3 = load ptr, ptr %2, align 8
  %4 = getelementptr inbounds %class.Type, ptr %3, i32 0, i32 2
  %5 = load i32, ptr %4, align 8
  %6 = icmp eq i32 %5, 4
  br i1 %6, label %7, label %8

7:                                                ; preds = %1
  br label %9

8:                                                ; preds = %1
  br label %9

9:                                                ; preds = %8, %7
  %10 = phi ptr [ %3, %7 ], [ null, %8 ]
  ret ptr %10
}

; Function Attrs: mustprogress nounwind uwtable
define linkonce_odr hidden noundef ptr @_ZNK11PhaseValues4typeEPK4Node(ptr noundef nonnull align 8 dereferenceable(2400) %0, ptr noundef %1) #1 comdat align 2 {
  %3 = alloca ptr, align 8
  %4 = alloca ptr, align 8
  %5 = alloca ptr, align 8
  store ptr %0, ptr %3, align 8
  store ptr %1, ptr %4, align 8
  %6 = load ptr, ptr %3, align 8
  %7 = getelementptr inbounds %class.PhaseValues, ptr %6, i32 0, i32 3
  %8 = load ptr, ptr %7, align 8
  %9 = load ptr, ptr %4, align 8
  %10 = getelementptr inbounds %class.Node, ptr %9, i32 0, i32 7
  %11 = load i32, ptr %10, align 8
  %12 = call noundef ptr @_ZNK10Type_Array11fast_lookupEj(ptr noundef nonnull align 8 dereferenceable(24) %8, i32 noundef %11)
  store ptr %12, ptr %5, align 8
  %13 = load ptr, ptr %5, align 8
  ret ptr %13
}

; Function Attrs: mustprogress nounwind uwtable
define linkonce_odr hidden void @_ZN8AddLNodeC2EP4NodeS1_(ptr noundef nonnull align 8 dereferenceable(52) %0, ptr noundef %1, ptr noundef %2) unnamed_addr #1 comdat align 2 {
  %4 = alloca ptr, align 8
  %5 = alloca ptr, align 8
  %6 = alloca ptr, align 8
  store ptr %0, ptr %4, align 8
  store ptr %1, ptr %5, align 8
  store ptr %2, ptr %6, align 8
  %7 = load ptr, ptr %4, align 8
  %8 = load ptr, ptr %5, align 8
  %9 = load ptr, ptr %6, align 8
  call void @_ZN7AddNodeC2EP4NodeS1_(ptr noundef nonnull align 8 dereferenceable(52) %7, ptr noundef %8, ptr noundef %9)
  store ptr getelementptr inbounds inrange(-16, 232) ({ [31 x ptr] }, ptr @_ZTV8AddLNode, i32 0, i32 0, i32 2), ptr %7, align 8
  ret void
}

; Function Attrs: mustprogress nounwind uwtable
define internal noundef zeroext i1 @"_ZZL30fold_subI_no_underflow_patternP4NodeP8PhaseGVNENK3$_0clES0_"(ptr noundef nonnull align 8 dereferenceable(16) %0, ptr noundef %1) #1 align 2 {
  %3 = alloca ptr, align 8
  %4 = alloca ptr, align 8
  %5 = alloca ptr, align 8
  store ptr %0, ptr %3, align 8
  store ptr %1, ptr %4, align 8
  %6 = load ptr, ptr %3, align 8
  %7 = getelementptr inbounds %class.anon, ptr %6, i32 0, i32 0
  %8 = load ptr, ptr %7, align 8
  %9 = load ptr, ptr %8, align 8
  %10 = load ptr, ptr %4, align 8
  %11 = call noundef ptr @_ZNK11PhaseValues4typeEPK4Node(ptr noundef nonnull align 8 dereferenceable(2400) %9, ptr noundef %10)
  %12 = call noundef ptr @_ZNK4Type8isa_longEv(ptr noundef nonnull align 8 dereferenceable(20) %11)
  store ptr %12, ptr %5, align 8
  %13 = load ptr, ptr %5, align 8
  %14 = icmp ne ptr %13, null
  br i1 %14, label %15, label %25

15:                                               ; preds = %2
  %16 = load ptr, ptr %5, align 8
  %17 = call noundef zeroext i1 @_ZNK8TypeLong6is_conEv(ptr noundef nonnull align 8 dereferenceable(40) %16)
  br i1 %17, label %18, label %25

18:                                               ; preds = %15
  %19 = load ptr, ptr %5, align 8
  %20 = call noundef i64 @_ZNK8TypeLong7get_conEv(ptr noundef nonnull align 8 dereferenceable(40) %19)
  %21 = getelementptr inbounds %class.anon, ptr %6, i32 0, i32 1
  %22 = load ptr, ptr %21, align 8
  %23 = load i64, ptr %22, align 8
  %24 = icmp eq i64 %20, %23
  br label %25

25:                                               ; preds = %18, %15, %2
  %26 = phi i1 [ false, %15 ], [ false, %2 ], [ %24, %18 ]
  ret i1 %26
}

; Function Attrs: mustprogress nounwind uwtable
define linkonce_odr hidden noundef ptr @_ZNK4Node2inEj(ptr noundef nonnull align 8 dereferenceable(52) %0, i32 noundef %1) #1 comdat align 2 {
  %3 = alloca ptr, align 8
  %4 = alloca i32, align 4
  store ptr %0, ptr %3, align 8
  store i32 %1, ptr %4, align 4
  %5 = load ptr, ptr %3, align 8
  %6 = getelementptr inbounds %class.Node, ptr %5, i32 0, i32 1
  %7 = load ptr, ptr %6, align 8
  %8 = load i32, ptr %4, align 4
  %9 = zext i32 %8 to i64
  %10 = getelementptr inbounds ptr, ptr %7, i64 %9
  %11 = load ptr, ptr %10, align 8
  ret ptr %11
}

; Function Attrs: mustprogress nounwind uwtable
define internal noundef ptr @_ZL30fold_subI_no_underflow_patternP4NodeP8PhaseGVN(ptr noundef %0, ptr noundef %1) #1 {
  %3 = alloca ptr, align 8
  %4 = alloca ptr, align 8
  %5 = alloca ptr, align 8
  %6 = alloca i64, align 8
  %7 = alloca %class.anon, align 8
  %8 = alloca %class.anon.15, align 8
  %9 = alloca ptr, align 8
  %10 = alloca ptr, align 8
  %11 = alloca ptr, align 8
  %12 = alloca ptr, align 8
  %13 = alloca ptr, align 8
  %14 = alloca ptr, align 8
  %15 = alloca ptr, align 8
  %16 = alloca ptr, align 8
  %17 = alloca ptr, align 8
  %18 = alloca ptr, align 8
  store ptr %0, ptr %4, align 8
  store ptr %1, ptr %5, align 8
  %19 = load ptr, ptr %4, align 8
  %20 = load ptr, ptr %19, align 8
  %21 = getelementptr inbounds ptr, ptr %20, i64 0
  %22 = load ptr, ptr %21, align 8
  %23 = call noundef i32 %22(ptr noundef nonnull align 8 dereferenceable(52) %19)
  %24 = icmp eq i32 %23, 210
  %25 = select i1 %24, i32 -2147483648, i32 2147483647
  %26 = sext i32 %25 to i64
  store i64 %26, ptr %6, align 8
  %27 = getelementptr inbounds %class.anon, ptr %7, i32 0, i32 0
  store ptr %5, ptr %27, align 8
  %28 = getelementptr inbounds %class.anon, ptr %7, i32 0, i32 1
  store ptr %6, ptr %28, align 8
  %29 = getelementptr inbounds %class.anon.15, ptr %8, i32 0, i32 0
  store ptr %5, ptr %29, align 8
  %30 = getelementptr inbounds %class.anon.15, ptr %8, i32 0, i32 1
  store ptr %4, ptr %30, align 8
  %31 = load ptr, ptr %4, align 8
  %32 = call noundef ptr @_ZNK4Node2inEj(ptr noundef nonnull align 8 dereferenceable(52) %31, i32 noundef 1)
  store ptr %32, ptr %9, align 8
  %33 = load ptr, ptr %4, align 8
  %34 = call noundef ptr @_ZNK4Node2inEj(ptr noundef nonnull align 8 dereferenceable(52) %33, i32 noundef 2)
  store ptr %34, ptr %10, align 8
  %35 = load ptr, ptr %9, align 8
  %36 = load ptr, ptr %35, align 8
  %37 = getelementptr inbounds ptr, ptr %36, i64 0
  %38 = load ptr, ptr %37, align 8
  %39 = call noundef i32 %38(ptr noundef nonnull align 8 dereferenceable(52) %35)
  %40 = icmp eq i32 %39, 24
  br i1 %40, label %41, label %116

41:                                               ; preds = %2
  %42 = load ptr, ptr %10, align 8
  %43 = call noundef zeroext i1 @"_ZZL30fold_subI_no_underflow_patternP4NodeP8PhaseGVNENK3$_0clES0_"(ptr noundef nonnull align 8 dereferenceable(16) %7, ptr noundef %42)
  br i1 %43, label %44, label %116

44:                                               ; preds = %41
  %45 = load ptr, ptr %9, align 8
  %46 = call noundef ptr @_ZNK4Node2inEj(ptr noundef nonnull align 8 dereferenceable(52) %45, i32 noundef 1)
  store ptr %46, ptr %11, align 8
  %47 = load ptr, ptr %9, align 8
  %48 = call noundef ptr @_ZNK4Node2inEj(ptr noundef nonnull align 8 dereferenceable(52) %47, i32 noundef 2)
  store ptr %48, ptr %12, align 8
  %49 = load ptr, ptr %11, align 8
  %50 = load ptr, ptr %49, align 8
  %51 = getelementptr inbounds ptr, ptr %50, i64 0
  %52 = load ptr, ptr %51, align 8
  %53 = call noundef i32 %52(ptr noundef nonnull align 8 dereferenceable(52) %49)
  %54 = load ptr, ptr %4, align 8
  %55 = load ptr, ptr %54, align 8
  %56 = getelementptr inbounds ptr, ptr %55, i64 0
  %57 = load ptr, ptr %56, align 8
  %58 = call noundef i32 %57(ptr noundef nonnull align 8 dereferenceable(52) %54)
  %59 = icmp eq i32 %53, %58
  br i1 %59, label %60, label %115

60:                                               ; preds = %44
  %61 = load ptr, ptr %12, align 8
  %62 = call noundef zeroext i1 @"_ZZL30fold_subI_no_underflow_patternP4NodeP8PhaseGVNENK3$_1clES0_"(ptr noundef nonnull align 8 dereferenceable(16) %8, ptr noundef %61)
  br i1 %62, label %63, label %115

63:                                               ; preds = %60
  %64 = load ptr, ptr %11, align 8
  %65 = call noundef ptr @_ZNK4Node2inEj(ptr noundef nonnull align 8 dereferenceable(52) %64, i32 noundef 1)
  store ptr %65, ptr %13, align 8
  %66 = load ptr, ptr %11, align 8
  %67 = call noundef ptr @_ZNK4Node2inEj(ptr noundef nonnull align 8 dereferenceable(52) %66, i32 noundef 2)
  store ptr %67, ptr %14, align 8
  %68 = load ptr, ptr %13, align 8
  %69 = load ptr, ptr %68, align 8
  %70 = getelementptr inbounds ptr, ptr %69, i64 0
  %71 = load ptr, ptr %70, align 8
  %72 = call noundef i32 %71(ptr noundef nonnull align 8 dereferenceable(52) %68)
  %73 = icmp eq i32 %72, 24
  br i1 %73, label %74, label %114

74:                                               ; preds = %63
  %75 = load ptr, ptr %14, align 8
  %76 = call noundef zeroext i1 @"_ZZL30fold_subI_no_underflow_patternP4NodeP8PhaseGVNENK3$_0clES0_"(ptr noundef nonnull align 8 dereferenceable(16) %7, ptr noundef %75)
  br i1 %76, label %77, label %114

77:                                               ; preds = %74
  %78 = load ptr, ptr %13, align 8
  %79 = call noundef ptr @_ZNK4Node2inEj(ptr noundef nonnull align 8 dereferenceable(52) %78, i32 noundef 1)
  store ptr %79, ptr %15, align 8
  %80 = load ptr, ptr %13, align 8
  %81 = call noundef ptr @_ZNK4Node2inEj(ptr noundef nonnull align 8 dereferenceable(52) %80, i32 noundef 2)
  store ptr %81, ptr %16, align 8
  %82 = load ptr, ptr %16, align 8
  %83 = call noundef zeroext i1 @"_ZZL30fold_subI_no_underflow_patternP4NodeP8PhaseGVNENK3$_1clES0_"(ptr noundef nonnull align 8 dereferenceable(16) %8, ptr noundef %82)
  br i1 %83, label %84, label %113

84:                                               ; preds = %77
  %85 = load ptr, ptr %5, align 8
  %86 = call noundef ptr @_ZN4NodenwEm(i64 noundef 56) #6
  %87 = icmp eq ptr %86, null
  br i1 %87, label %91, label %88

88:                                               ; preds = %84
  %89 = load ptr, ptr %12, align 8
  %90 = load ptr, ptr %16, align 8
  call void @_ZN8AddLNodeC2EP4NodeS1_(ptr noundef nonnull align 8 dereferenceable(52) %86, ptr noundef %89, ptr noundef %90)
  br label %91

91:                                               ; preds = %88, %84
  %92 = phi ptr [ %86, %88 ], [ null, %84 ]
  %93 = load ptr, ptr %85, align 8
  %94 = getelementptr inbounds ptr, ptr %93, i64 0
  %95 = load ptr, ptr %94, align 8
  %96 = call noundef ptr %95(ptr noundef nonnull align 8 dereferenceable(2400) %85, ptr noundef %92)
  store ptr %96, ptr %17, align 8
  %97 = load ptr, ptr %5, align 8
  %98 = call noundef ptr @_ZN4NodenwEm(i64 noundef 56) #6
  %99 = icmp eq ptr %98, null
  br i1 %99, label %103, label %100

100:                                              ; preds = %91
  %101 = load ptr, ptr %15, align 8
  %102 = load ptr, ptr %17, align 8
  call void @_ZN8AddLNodeC2EP4NodeS1_(ptr noundef nonnull align 8 dereferenceable(52) %98, ptr noundef %101, ptr noundef %102)
  br label %103

103:                                              ; preds = %100, %91
  %104 = phi ptr [ %98, %100 ], [ null, %91 ]
  %105 = load ptr, ptr %97, align 8
  %106 = getelementptr inbounds ptr, ptr %105, i64 0
  %107 = load ptr, ptr %106, align 8
  %108 = call noundef ptr %107(ptr noundef nonnull align 8 dereferenceable(2400) %97, ptr noundef %104)
  store ptr %108, ptr %18, align 8
  %109 = load ptr, ptr %4, align 8
  %110 = load ptr, ptr %18, align 8
  %111 = load ptr, ptr %5, align 8
  call void @_ZN4Node9set_req_XEjPS_P8PhaseGVN(ptr noundef nonnull align 8 dereferenceable(52) %109, i32 noundef 1, ptr noundef %110, ptr noundef %111)
  %112 = load ptr, ptr %4, align 8
  store ptr %112, ptr %3, align 8
  br label %117

113:                                              ; preds = %77
  br label %114

114:                                              ; preds = %113, %74, %63
  br label %115

115:                                              ; preds = %114, %60, %44
  br label %116

116:                                              ; preds = %115, %41, %2
  store ptr null, ptr %3, align 8
  br label %117

117:                                              ; preds = %116, %103
  %118 = load ptr, ptr %3, align 8
  ret ptr %118
}