; Function Attrs: mustprogress nounwind uwtable
define internal fastcc noundef ptr @_ZL30fold_subI_no_underflow_patternP4NodeP8PhaseGVN(ptr noundef %0, ptr noundef %1) unnamed_addr #0 {
  %3 = alloca ptr, align 8
  store ptr %0, ptr %3, align 8
  %4 = load ptr, ptr %0, align 8
  %5 = load ptr, ptr %4, align 8
  %6 = tail call noundef i32 %5(ptr noundef nonnull align 8 dereferenceable(52) %0) #7
  %7 = icmp eq i32 %6, 210
  %8 = select i1 %7, i64 -2147483648, i64 2147483647
  %9 = getelementptr inbounds i8, ptr %0, i64 8
  %10 = load ptr, ptr %9, align 8
  %11 = getelementptr inbounds i8, ptr %10, i64 8
  %12 = load ptr, ptr %11, align 8
  %13 = getelementptr inbounds i8, ptr %10, i64 16
  %14 = load ptr, ptr %13, align 8
  %15 = load ptr, ptr %12, align 8
  %16 = load ptr, ptr %15, align 8
  %17 = tail call noundef i32 %16(ptr noundef nonnull align 8 dereferenceable(52) %12) #7
  %18 = icmp eq i32 %17, 24
  br i1 %18, label %19, label %"_ZZL30fold_subI_no_underflow_patternP4NodeP8PhaseGVNENK3$_0clES0_.exit.thread"

19:                                               ; preds = %2
  %20 = getelementptr i8, ptr %14, i64 40
  %.val22 = load i32, ptr %20, align 8
  %21 = getelementptr i8, ptr %1, i64 40
  %.val.val.val = load ptr, ptr %21, align 8
  %22 = getelementptr i8, ptr %.val.val.val, i64 16
  %.val.val.val.val = load ptr, ptr %22, align 8
  %23 = zext i32 %.val22 to i64
  %24 = getelementptr inbounds ptr, ptr %.val.val.val.val, i64 %23
  %25 = load ptr, ptr %24, align 8
  %26 = getelementptr inbounds i8, ptr %25, i64 16
  %27 = load i32, ptr %26, align 8
  %28 = icmp ne i32 %27, 4
  %.not1.i = icmp eq ptr %25, null
  %.not.i = or i1 %.not1.i, %28
  br i1 %.not.i, label %"_ZZL30fold_subI_no_underflow_patternP4NodeP8PhaseGVNENK3$_0clES0_.exit.thread", label %29

29:                                               ; preds = %19
  %30 = getelementptr inbounds i8, ptr %25, i64 24
  %31 = load i64, ptr %30, align 8
  %32 = getelementptr inbounds i8, ptr %25, i64 32
  %33 = load i64, ptr %32, align 8
  %34 = icmp eq i64 %31, %33
  %35 = icmp eq i64 %31, %8
  %or.cond = and i1 %35, %34
  br i1 %or.cond, label %36, label %"_ZZL30fold_subI_no_underflow_patternP4NodeP8PhaseGVNENK3$_0clES0_.exit.thread"

36:                                               ; preds = %29
  %37 = getelementptr inbounds i8, ptr %12, i64 8
  %38 = load ptr, ptr %37, align 8
  %39 = getelementptr inbounds i8, ptr %38, i64 8
  %40 = load ptr, ptr %39, align 8
  %41 = getelementptr inbounds i8, ptr %38, i64 16
  %42 = load ptr, ptr %41, align 8
  %43 = load ptr, ptr %40, align 8
  %44 = load ptr, ptr %43, align 8
  %45 = tail call noundef i32 %44(ptr noundef nonnull align 8 dereferenceable(52) %40) #7
  %46 = load ptr, ptr %0, align 8
  %47 = load ptr, ptr %46, align 8
  %48 = tail call noundef i32 %47(ptr noundef nonnull align 8 dereferenceable(52) %0) #7
  %49 = icmp eq i32 %45, %48
  br i1 %49, label %50, label %"_ZZL30fold_subI_no_underflow_patternP4NodeP8PhaseGVNENK3$_0clES0_.exit.thread"

50:                                               ; preds = %36
  %51 = getelementptr i8, ptr %42, i64 40
  %.val28 = load i32, ptr %51, align 8
  %.val26.val.val = load ptr, ptr %21, align 8
  %52 = getelementptr i8, ptr %.val26.val.val, i64 16
  %.val26.val.val.val = load ptr, ptr %52, align 8
  %53 = zext i32 %.val28 to i64
  %54 = getelementptr inbounds ptr, ptr %.val26.val.val.val, i64 %53
  %55 = load ptr, ptr %54, align 8
  %56 = getelementptr inbounds i8, ptr %55, i64 16
  %57 = load i32, ptr %56, align 8
  %58 = icmp ne i32 %57, 4
  %.not2.i = icmp eq ptr %55, null
  %.not.i32 = or i1 %.not2.i, %58
  br i1 %.not.i32, label %"_ZZL30fold_subI_no_underflow_patternP4NodeP8PhaseGVNENK3$_0clES0_.exit.thread", label %59

59:                                               ; preds = %50
  %60 = getelementptr inbounds i8, ptr %55, i64 24
  %61 = load i64, ptr %60, align 8
  %62 = getelementptr inbounds i8, ptr %55, i64 32
  %63 = load i64, ptr %62, align 8
  %64 = icmp eq i64 %61, %63
  %65 = add i64 %61, 2147483647
  %66 = icmp ult i64 %65, 4294967294
  %or.cond1.i = and i1 %64, %66
  br i1 %or.cond1.i, label %"_ZZL30fold_subI_no_underflow_patternP4NodeP8PhaseGVNENK3$_1clES0_.exit", label %"_ZZL30fold_subI_no_underflow_patternP4NodeP8PhaseGVNENK3$_0clES0_.exit.thread"

"_ZZL30fold_subI_no_underflow_patternP4NodeP8PhaseGVNENK3$_1clES0_.exit": ; preds = %59
  %67 = load ptr, ptr %0, align 8
  %68 = load ptr, ptr %67, align 8
  %69 = tail call noundef i32 %68(ptr noundef nonnull align 8 dereferenceable(52) %0) #7
  %70 = icmp slt i64 %61, 0
  %71 = icmp ne i32 %69, 210
  %72 = xor i1 %70, %71
  br i1 %72, label %73, label %"_ZZL30fold_subI_no_underflow_patternP4NodeP8PhaseGVNENK3$_0clES0_.exit.thread"

73:                                               ; preds = %"_ZZL30fold_subI_no_underflow_patternP4NodeP8PhaseGVNENK3$_1clES0_.exit"
  %74 = getelementptr inbounds i8, ptr %40, i64 8
  %75 = load ptr, ptr %74, align 8
  %76 = getelementptr inbounds i8, ptr %75, i64 8
  %77 = load ptr, ptr %76, align 8
  %78 = getelementptr inbounds i8, ptr %75, i64 16
  %79 = load ptr, ptr %78, align 8
  %80 = load ptr, ptr %77, align 8
  %81 = load ptr, ptr %80, align 8
  %82 = tail call noundef i32 %81(ptr noundef nonnull align 8 dereferenceable(52) %77) #7
  %83 = icmp eq i32 %82, 24
  br i1 %83, label %84, label %"_ZZL30fold_subI_no_underflow_patternP4NodeP8PhaseGVNENK3$_0clES0_.exit.thread"

84:                                               ; preds = %73
  %85 = getelementptr i8, ptr %79, i64 40
  %.val25 = load i32, ptr %85, align 8
  %.val23.val.val = load ptr, ptr %21, align 8
  %86 = getelementptr i8, ptr %.val23.val.val, i64 16
  %.val23.val.val.val = load ptr, ptr %86, align 8
  %87 = zext i32 %.val25 to i64
  %88 = getelementptr inbounds ptr, ptr %.val23.val.val.val, i64 %87
  %89 = load ptr, ptr %88, align 8
  %90 = getelementptr inbounds i8, ptr %89, i64 16
  %91 = load i32, ptr %90, align 8
  %92 = icmp ne i32 %91, 4
  %.not1.i33 = icmp eq ptr %89, null
  %.not.i34 = or i1 %.not1.i33, %92
  br i1 %.not.i34, label %"_ZZL30fold_subI_no_underflow_patternP4NodeP8PhaseGVNENK3$_0clES0_.exit.thread", label %93

93:                                               ; preds = %84
  %94 = getelementptr inbounds i8, ptr %89, i64 24
  %95 = load i64, ptr %94, align 8
  %96 = getelementptr inbounds i8, ptr %89, i64 32
  %97 = load i64, ptr %96, align 8
  %98 = icmp eq i64 %95, %97
  %99 = icmp eq i64 %95, %8
  %or.cond41 = and i1 %99, %98
  br i1 %or.cond41, label %100, label %"_ZZL30fold_subI_no_underflow_patternP4NodeP8PhaseGVNENK3$_0clES0_.exit.thread"

100:                                              ; preds = %93
  %101 = getelementptr inbounds i8, ptr %77, i64 8
  %102 = load ptr, ptr %101, align 8
  %103 = getelementptr inbounds i8, ptr %102, i64 8
  %104 = load ptr, ptr %103, align 8
  %105 = getelementptr inbounds i8, ptr %102, i64 16
  %106 = load ptr, ptr %105, align 8
  %107 = getelementptr i8, ptr %106, i64 40
  %.val31 = load i32, ptr %107, align 8
  %108 = call fastcc noundef zeroext i1 @"_ZZL30fold_subI_no_underflow_patternP4NodeP8PhaseGVNENK3$_1clES0_"(ptr nonnull %.val23.val.val.val, ptr nonnull %3, i32 %.val31)
  br i1 %108, label %109, label %"_ZZL30fold_subI_no_underflow_patternP4NodeP8PhaseGVNENK3$_0clES0_.exit.thread"

109:                                              ; preds = %100
  %110 = tail call noundef ptr @_ZN4NodenwEm(i64 noundef 56) #7
  %111 = icmp eq ptr %110, null
  br i1 %111, label %114, label %112

112:                                              ; preds = %109
  tail call void @_ZN4NodeC2EPS_S0_S0_(ptr noundef nonnull align 8 dereferenceable(52) %110, ptr noundef null, ptr noundef nonnull %42, ptr noundef nonnull %106) #7
  %113 = getelementptr inbounds i8, ptr %110, i64 44
  store i32 2048, ptr %113, align 4
  store ptr getelementptr inbounds inrange(-16, 232) (i8, ptr @_ZTV8AddLNode, i64 16), ptr %110, align 8
  br label %114

114:                                              ; preds = %112, %109
  %115 = load ptr, ptr %1, align 8
  %116 = load ptr, ptr %115, align 8
  %117 = tail call noundef ptr %116(ptr noundef nonnull align 8 dereferenceable(2400) %1, ptr noundef %110) #7
  %118 = tail call noundef ptr @_ZN4NodenwEm(i64 noundef 56) #7
  %119 = icmp eq ptr %118, null
  br i1 %119, label %122, label %120

120:                                              ; preds = %114
  tail call void @_ZN4NodeC2EPS_S0_S0_(ptr noundef nonnull align 8 dereferenceable(52) %118, ptr noundef null, ptr noundef %104, ptr noundef %117) #7
  %121 = getelementptr inbounds i8, ptr %118, i64 44
  store i32 2048, ptr %121, align 4
  store ptr getelementptr inbounds inrange(-16, 232) (i8, ptr @_ZTV8AddLNode, i64 16), ptr %118, align 8
  br label %122

122:                                              ; preds = %120, %114
  %123 = load ptr, ptr %1, align 8
  %124 = load ptr, ptr %123, align 8
  %125 = tail call noundef ptr %124(ptr noundef nonnull align 8 dereferenceable(2400) %1, ptr noundef %118) #7
  tail call void @_ZN4Node9set_req_XEjPS_P8PhaseGVN(ptr noundef nonnull align 8 dereferenceable(52) %0, i32 noundef 1, ptr noundef %125, ptr noundef nonnull %1) #7
  br label %"_ZZL30fold_subI_no_underflow_patternP4NodeP8PhaseGVNENK3$_0clES0_.exit.thread"

"_ZZL30fold_subI_no_underflow_patternP4NodeP8PhaseGVNENK3$_0clES0_.exit.thread": ; preds = %84, %93, %50, %59, %19, %29, %2, %73, %100, %"_ZZL30fold_subI_no_underflow_patternP4NodeP8PhaseGVNENK3$_1clES0_.exit", %36, %122
  %.0 = phi ptr [ %0, %122 ], [ null, %36 ], [ null, %"_ZZL30fold_subI_no_underflow_patternP4NodeP8PhaseGVNENK3$_1clES0_.exit" ], [ null, %100 ], [ null, %73 ], [ null, %2 ], [ null, %29 ], [ null, %19 ], [ null, %59 ], [ null, %50 ], [ null, %93 ], [ null, %84 ]
  ret ptr %.0
}